SF:/path/to/template-rust/src/config.rs
FN:11,_RNCNvMNtCs2i52dx7yb2k_22deadnews_template_rust6configNtB4_6Config8from_env0B6_
FN:10,_RNvMNtCs2i52dx7yb2k_22deadnews_template_rust6configNtB2_6Config8from_env
FNDA:0,_RNCNvMNtCs2i52dx7yb2k_22deadnews_template_rust6configNtB4_6Config8from_env0B6_
FNDA:0,_RNvMNtCs2i52dx7yb2k_22deadnews_template_rust6configNtB2_6Config8from_env
FNF:2
FNH:0
DA:10,0
DA:11,0
DA:12,0
DA:13,0
DA:16,0
DA:17,0
BRF:0
BRH:0
LF:7
LH:0
end_of_record
SF:/path/to/template-rust/src/db.rs
FN:10,_RNvNtCs2i52dx7yb2k_22deadnews_template_rust2db17get_database_info
FN:10,_RNCNvNtCs2i52dx7yb2k_22deadnews_template_rust2db17get_database_info0B5_
FNDA:5,_RNvNtCs2i52dx7yb2k_22deadnews_template_rust2db17get_database_info
FNDA:5,_RNCNvNtCs2i52dx7yb2k_22deadnews_template_rust2db17get_database_info0B5_
FNF:2
FNH:2
DA:10,5
DA:11,5
DA:14,4
DA:15,4
DA:16,4
DA:19,4
DA:20,4
DA:21,4
DA:23,4
DA:24,5
BRF:0
BRH:0
LF:11
LH:11
end_of_record
SF:/path/to/template-rust/src/error.rs
FN:28,_RNvXs_NtCs2i52dx7yb2k_22deadnews_template_rust5errorNtB4_8AppErrorNtNtNtCsemqjQd4VUoN_9axum_core8response13into_response12IntoResponse13into_response
FN:17,_RNvXNtCs2i52dx7yb2k_22deadnews_template_rust5errorNtB2_8AppErrorINtNtCs4kUJL3MZFFz_4core7convert4FromNtCs1La5KFeUgu6_6anyhow5ErrorE4fromB4_
FNDA:1,_RNvXs_NtCs2i52dx7yb2k_22deadnews_template_rust5errorNtB4_8AppErrorNtNtNtCsemqjQd4VUoN_9axum_core8response13into_response12IntoResponse13into_response
FNDA:1,_RNvXNtCs2i52dx7yb2k_22deadnews_template_rust5errorNtB2_8AppErrorINtNtCs4kUJL3MZFFz_4core7convert4FromNtCs1La5KFeUgu6_6anyhow5ErrorE4fromB4_
FNF:2
FNH:2
DA:17,1
DA:18,1
DA:19,1
DA:28,1
DA:29,1
DA:31,1
DA:32,1
DA:33,1
DA:34,1
DA:35,1
DA:36,1
DA:37,1
DA:38,1
BRF:0
BRH:0
LF:13
LH:13
end_of_record
SF:/path/to/template-rust/src/main.rs
FN:34,_RNCNCNvCs2i52dx7yb2k_22deadnews_template_rust4main00B5_
FN:54,_RNCNCNvCs2i52dx7yb2k_22deadnews_template_rust4main0s0_0B5_
FN:46,_RNCNCNvCs2i52dx7yb2k_22deadnews_template_rust4main0s_0B5_
FN:60,_RNCNvCs2i52dx7yb2k_22deadnews_template_rust15shutdown_signal0B3_
FN:19,_RNCNvCs2i52dx7yb2k_22deadnews_template_rust4main0B3_
FN:60,_RNvCs2i52dx7yb2k_22deadnews_template_rust15shutdown_signal
FN:19,_RNvCs2i52dx7yb2k_22deadnews_template_rust4main
FNDA:0,_RNCNCNvCs2i52dx7yb2k_22deadnews_template_rust4main00B5_
FNDA:0,_RNCNCNvCs2i52dx7yb2k_22deadnews_template_rust4main0s0_0B5_
FNDA:0,_RNCNCNvCs2i52dx7yb2k_22deadnews_template_rust4main0s_0B5_
FNDA:0,_RNCNvCs2i52dx7yb2k_22deadnews_template_rust15shutdown_signal0B3_
FNDA:0,_RNCNvCs2i52dx7yb2k_22deadnews_template_rust4main0B3_
FNDA:0,_RNvCs2i52dx7yb2k_22deadnews_template_rust15shutdown_signal
FNDA:0,_RNvCs2i52dx7yb2k_22deadnews_template_rust4main
FNF:7
FNH:0
DA:19,0
DA:21,0
DA:22,0
DA:23,0
DA:24,0
DA:27,0
DA:30,0
DA:31,0
DA:32,0
DA:33,0
DA:34,0
DA:35,0
DA:36,0
DA:40,0
DA:41,0
DA:42,0
DA:44,0
DA:45,0
DA:46,0
DA:47,0
DA:48,0
DA:51,0
DA:52,0
DA:53,0
DA:54,0
DA:55,0
DA:56,0
DA:57,0
DA:58,0
DA:60,0
DA:61,0
DA:62,0
DA:63,0
DA:64,0
DA:65,0
BRF:0
BRH:0
LF:46
LH:0
end_of_record
SF:/path/to/template-rust/src/routing.rs
FN:31,_RNCNvNtCs2i52dx7yb2k_22deadnews_template_rust7routing12health_check0B5_
FN:35,_RNCNvNtCs2i52dx7yb2k_22deadnews_template_rust7routing13database_test0B5_
FN:31,_RNvNtCs2i52dx7yb2k_22deadnews_template_rust7routing12health_check
FN:18,_RNvNtCs2i52dx7yb2k_22deadnews_template_rust7routing13create_router
FN:35,_RNvNtCs2i52dx7yb2k_22deadnews_template_rust7routing13database_test
FNDA:1,_RNCNvNtCs2i52dx7yb2k_22deadnews_template_rust7routing12health_check0B5_
FNDA:2,_RNCNvNtCs2i52dx7yb2k_22deadnews_template_rust7routing13database_test0B5_
FNDA:1,_RNvNtCs2i52dx7yb2k_22deadnews_template_rust7routing12health_check
FNDA:5,_RNvNtCs2i52dx7yb2k_22deadnews_template_rust7routing13create_router
FNDA:2,_RNvNtCs2i52dx7yb2k_22deadnews_template_rust7routing13database_test
FNF:5
FNH:5
DA:18,5
DA:19,5
DA:20,5
DA:21,5
DA:22,5
DA:23,5
DA:24,5
DA:25,5
DA:26,5
DA:28,5
DA:29,5
DA:31,1
DA:32,1
DA:33,1
DA:35,2
DA:36,2
DA:37,1
DA:38,2
BRF:0
BRH:0
LF:20
LH:20
end_of_record
